target datalayout = "e-m:e-p270:32:32-p271:32:32-p272:64:64-i64:64-i128:128-f80:128-n8:16:32:64-S128"
target triple = "x86_64-pc-linux-gnu"

%struct.AVFilterContext = type { ptr, ptr, ptr, ptr, ptr, i32, ptr, ptr, i32, ptr, ptr, i32, i32, ptr, ptr, ptr, ptr, i32, ptr, i32, i32 }
%struct.TestSourceContext = type { ptr, i32, i32, i32, i32, i32, %struct.AVRational, %struct.AVRational, i64, i64, %struct.AVRational, i32, i32, ptr, ptr, i32, i32, [4 x i8], i32, %struct.FFDrawContext, %struct.FFDrawColor, [4 x i8], [4 x i8], i32, i32, i32, i32, i32, i32, i32, i32, i32, i32, i32, i32, i32, i32, i32, i32, i32, i32, i32, ptr, ptr }
%struct.AVRational = type { i32, i32 }
%struct.FFDrawContext = type { ptr, i32, i32, [4 x i32], [4 x i8], [4 x i8], i8, i8, i32, i32, i32, [3 x [3 x double]] }
%struct.FFDrawColor = type { [4 x i8], [4 x %union.anon.2] }
%union.anon.2 = type { [4 x i32] }
%struct.AVFilterLink = type { ptr, ptr, ptr, ptr, i32, i32, i32, i32, %struct.AVRational, i32, i32, i32, %struct.AVChannelLayout, %struct.AVRational, ptr, i32, %struct.AVFilterFormatsConfig, %struct.AVFilterFormatsConfig }
%struct.AVChannelLayout = type { i32, i32, %union.anon.1, ptr }
%union.anon.1 = type { i64 }
%struct.AVFilterFormatsConfig = type { ptr, ptr, ptr, ptr, ptr }
%struct.FilterLink = type { %struct.AVFilterLink, ptr, i64, i64, i32, i32, i64, i64, i64, i64, %struct.AVRational, ptr }

; Function Attrs: inlinehint nounwind uwtable
define internal ptr @ff_filter_link(ptr noundef %0) #4 {
  %2 = alloca ptr, align 8
  store ptr %0, ptr %2, align 8, !tbaa !39
  %3 = load ptr, ptr %2, align 8, !tbaa !39
  ret ptr %3
}

; Function Attrs: nounwind uwtable
define internal i32 @config_props(ptr noundef %0) #1 {
  %2 = alloca ptr, align 8
  %3 = alloca ptr, align 8
  %4 = alloca ptr, align 8
  store ptr %0, ptr %2, align 8, !tbaa !39
  call void @llvm.lifetime.start.p0(i64 8, ptr %3) #15
  %5 = load ptr, ptr %2, align 8, !tbaa !39
  %6 = getelementptr inbounds nuw %struct.AVFilterLink, ptr %5, i32 0, i32 0
  %7 = load ptr, ptr %6, align 8, !tbaa !48
  %8 = getelementptr inbounds nuw %struct.AVFilterContext, ptr %7, i32 0, i32 9
  %9 = load ptr, ptr %8, align 8, !tbaa !9
  store ptr %9, ptr %3, align 8, !tbaa !22
  call void @llvm.lifetime.start.p0(i64 8, ptr %4) #15
  %10 = load ptr, ptr %2, align 8, !tbaa !39
  %11 = call ptr @ff_filter_link(ptr noundef %10)
  store ptr %11, ptr %4, align 8, !tbaa !81
  %12 = load ptr, ptr %3, align 8, !tbaa !22
  %13 = getelementptr inbounds nuw %struct.TestSourceContext, ptr %12, i32 0, i32 1
  %14 = load i32, ptr %13, align 8, !tbaa !46
  %15 = load ptr, ptr %2, align 8, !tbaa !39
  %16 = getelementptr inbounds nuw %struct.AVFilterLink, ptr %15, i32 0, i32 6
  store i32 %14, ptr %16, align 8, !tbaa !83
  %17 = load ptr, ptr %3, align 8, !tbaa !22
  %18 = getelementptr inbounds nuw %struct.TestSourceContext, ptr %17, i32 0, i32 2
  %19 = load i32, ptr %18, align 4, !tbaa !47
  %20 = load ptr, ptr %2, align 8, !tbaa !39
  %21 = getelementptr inbounds nuw %struct.AVFilterLink, ptr %20, i32 0, i32 7
  store i32 %19, ptr %21, align 4, !tbaa !84
  %22 = load ptr, ptr %2, align 8, !tbaa !39
  %23 = getelementptr inbounds nuw %struct.AVFilterLink, ptr %22, i32 0, i32 8
  %24 = load ptr, ptr %3, align 8, !tbaa !22
  %25 = getelementptr inbounds nuw %struct.TestSourceContext, ptr %24, i32 0, i32 10
  call void @llvm.memcpy.p0.p0.i64(ptr align 8 %23, ptr align 8 %25, i64 8, i1 false), !tbaa.struct !64
  %26 = load ptr, ptr %4, align 8, !tbaa !81
  %27 = getelementptr inbounds nuw %struct.FilterLink, ptr %26, i32 0, i32 10
  %28 = load ptr, ptr %3, align 8, !tbaa !22
  %29 = getelementptr inbounds nuw %struct.TestSourceContext, ptr %28, i32 0, i32 7
  call void @llvm.memcpy.p0.p0.i64(ptr align 8 %27, ptr align 4 %29, i64 8, i1 false), !tbaa.struct !64
  %30 = load ptr, ptr %2, align 8, !tbaa !39
  %31 = getelementptr inbounds nuw %struct.AVFilterLink, ptr %30, i32 0, i32 13
  %32 = load ptr, ptr %3, align 8, !tbaa !22
  %33 = getelementptr inbounds nuw %struct.TestSourceContext, ptr %32, i32 0, i32 6
  call void @llvm.memcpy.p0.p0.i64(ptr align 8 %31, ptr align 4 %33, i64 8, i1 false), !tbaa.struct !64
  call void @llvm.lifetime.end.p0(i64 8, ptr %4) #15
  call void @llvm.lifetime.end.p0(i64 8, ptr %3) #15
  ret i32 0
}

; Function Attrs: nounwind uwtable
define internal i32 @yuvtest_config_props(ptr noundef %0) #1 {
  %2 = alloca ptr, align 8
  %3 = alloca ptr, align 8
  store ptr %0, ptr %2, align 8, !tbaa !39
  call void @llvm.lifetime.start.p0(i64 8, ptr %3) #15
  %4 = load ptr, ptr %2, align 8, !tbaa !39
  %5 = getelementptr inbounds nuw %struct.AVFilterLink, ptr %4, i32 0, i32 0
  %6 = load ptr, ptr %5, align 8, !tbaa !48
  %7 = getelementptr inbounds nuw %struct.AVFilterContext, ptr %6, i32 0, i32 9
  %8 = load ptr, ptr %7, align 8, !tbaa !9
  store ptr %8, ptr %3, align 8, !tbaa !22
  %9 = load ptr, ptr %3, align 8, !tbaa !22
  %10 = getelementptr inbounds nuw %struct.TestSourceContext, ptr %9, i32 0, i32 17
  %11 = getelementptr inbounds [4 x i8], ptr %10, i64 0, i64 0
  %12 = load ptr, ptr %2, align 8, !tbaa !39
  %13 = getelementptr inbounds nuw %struct.AVFilterLink, ptr %12, i32 0, i32 5
  %14 = load i32, ptr %13, align 4, !tbaa !78
  %15 = call i32 @ff_fill_ayuv_map(ptr noundef %11, i32 noundef %14)
  %16 = load ptr, ptr %2, align 8, !tbaa !39
  %17 = call i32 @config_props(ptr noundef %16)
  call void @llvm.lifetime.end.p0(i64 8, ptr %3) #15
  ret i32 %17
}