; Function Attrs: nounwind uwtable
define internal noundef i32 @yuvtest_config_props(ptr noundef captures(none) initializes((40, 56), (96, 104), (264, 272)) %0) #1 {
  %2 = load ptr, ptr %0, align 8, !tbaa !38
  %3 = getelementptr inbounds nuw i8, ptr %2, i64 72
  %4 = load ptr, ptr %3, align 8, !tbaa !4
  %5 = getelementptr inbounds nuw i8, ptr %4, i64 104
  %6 = getelementptr inbounds nuw i8, ptr %0, i64 36
  %7 = load i32, ptr %6, align 4, !tbaa !61
  %8 = tail call i32 @ff_fill_ayuv_map(ptr noundef nonnull %5, i32 noundef %7) #20
  %9 = load ptr, ptr %0, align 8, !tbaa !38
  %10 = getelementptr inbounds nuw i8, ptr %9, i64 72
  %11 = load ptr, ptr %10, align 8, !tbaa !4
  %12 = getelementptr inbounds nuw i8, ptr %11, i64 8
  %13 = load i32, ptr %12, align 8, !tbaa !36
  %14 = getelementptr inbounds nuw i8, ptr %0, i64 40
  store i32 %13, ptr %14, align 8, !tbaa !64
  %15 = getelementptr inbounds nuw i8, ptr %11, i64 12
  %16 = load i32, ptr %15, align 4, !tbaa !37
  %17 = getelementptr inbounds nuw i8, ptr %0, i64 44
  store i32 %16, ptr %17, align 4, !tbaa !65
  %18 = getelementptr inbounds nuw i8, ptr %0, i64 48
  %19 = getelementptr inbounds nuw i8, ptr %11, i64 64
  %20 = load i64, ptr %19, align 8
  store i64 %20, ptr %18, align 8
  %21 = getelementptr inbounds nuw i8, ptr %0, i64 264
  %22 = getelementptr inbounds nuw i8, ptr %11, i64 36
  %23 = load i64, ptr %22, align 4
  store i64 %23, ptr %21, align 8
  %24 = getelementptr inbounds nuw i8, ptr %0, i64 96
  %25 = getelementptr inbounds nuw i8, ptr %11, i64 28
  %26 = load i64, ptr %25, align 4
  store i64 %26, ptr %24, align 8
  ret i32 0
}